target datalayout = "e-m:e-p270:32:32-p271:32:32-p272:64:64-i64:64-i128:128-f80:128-n8:16:32:64-S128"
target triple = "x86_64-pc-linux-gnu"

%struct.FunctionCallInfoBaseData = type { ptr, ptr, ptr, i32, i8, i16, [0 x %struct.NullableDatum] }
%struct.NullableDatum = type { i64, i8 }

; Function Attrs: inlinehint nounwind uwtable
define internal i64 @BoolGetDatum(i1 noundef zeroext %0) #5 {
  %2 = alloca i8, align 1
  %3 = zext i1 %0 to i8
  store i8 %3, ptr %2, align 1
  %4 = load i8, ptr %2, align 1, !range !12, !noundef !13
  %5 = trunc i8 %4 to i1
  %6 = select i1 %5, i32 1, i32 0
  %7 = sext i32 %6 to i64
  ret i64 %7
}

; Function Attrs: nounwind uwtable
define internal i64 @convert_schema_priv_string(ptr noundef %0) #0 {
  %2 = alloca ptr, align 8
  store ptr %0, ptr %2, align 8
  %3 = load ptr, ptr %2, align 8
  %4 = call i64 @convert_any_priv_string(ptr noundef %3, ptr noundef @convert_schema_priv_string.schema_priv_map)
  ret i64 %4
}

; Function Attrs: nounwind uwtable
define internal i32 @convert_schema_name(ptr noundef %0) #0 {
  %2 = alloca ptr, align 8
  %3 = alloca ptr, align 8
  store ptr %0, ptr %2, align 8
  call void @llvm.lifetime.start.p0(i64 8, ptr %3) #9
  %4 = load ptr, ptr %2, align 8
  %5 = call ptr @text_to_cstring(ptr noundef %4)
  store ptr %5, ptr %3, align 8
  %6 = load ptr, ptr %3, align 8
  %7 = call i32 @get_namespace_oid(ptr noundef %6, i1 noundef zeroext false)
  call void @llvm.lifetime.end.p0(i64 8, ptr %3) #9
  ret i32 %7
}

; Function Attrs: inlinehint nounwind uwtable
define internal ptr @DatumGetPointer(i64 noundef %0) #5 {
  %2 = alloca i64, align 8
  store i64 %0, ptr %2, align 8
  %3 = load i64, ptr %2, align 8
  %4 = inttoptr i64 %3 to ptr
  ret ptr %4
}

; Function Attrs: inlinehint nounwind uwtable
define internal i32 @DatumGetObjectId(i64 noundef %0) #5 {
  %2 = alloca i64, align 8
  store i64 %0, ptr %2, align 8
  %3 = load i64, ptr %2, align 8
  %4 = trunc i64 %3 to i32
  ret i32 %4
}

; Function Attrs: nounwind uwtable
define dso_local i64 @has_schema_privilege_id_name(ptr noundef %0) #0 {
  %2 = alloca ptr, align 8
  %3 = alloca i32, align 4
  %4 = alloca ptr, align 8
  %5 = alloca ptr, align 8
  %6 = alloca i32, align 4
  %7 = alloca i64, align 8
  %8 = alloca i32, align 4
  store ptr %0, ptr %2, align 8
  call void @llvm.lifetime.start.p0(i64 4, ptr %3) #9
  %9 = load ptr, ptr %2, align 8
  %10 = getelementptr inbounds nuw %struct.FunctionCallInfoBaseData, ptr %9, i32 0, i32 6
  %11 = getelementptr inbounds [0 x %struct.NullableDatum], ptr %10, i64 0, i64 0
  %12 = getelementptr inbounds nuw %struct.NullableDatum, ptr %11, i32 0, i32 0
  %13 = load i64, ptr %12, align 8
  %14 = call i32 @DatumGetObjectId(i64 noundef %13)
  store i32 %14, ptr %3, align 4
  call void @llvm.lifetime.start.p0(i64 8, ptr %4) #9
  %15 = load ptr, ptr %2, align 8
  %16 = getelementptr inbounds nuw %struct.FunctionCallInfoBaseData, ptr %15, i32 0, i32 6
  %17 = getelementptr inbounds [0 x %struct.NullableDatum], ptr %16, i64 0, i64 1
  %18 = getelementptr inbounds nuw %struct.NullableDatum, ptr %17, i32 0, i32 0
  %19 = load i64, ptr %18, align 8
  %20 = call ptr @DatumGetPointer(i64 noundef %19)
  %21 = call ptr @pg_detoast_datum_packed(ptr noundef %20)
  store ptr %21, ptr %4, align 8
  call void @llvm.lifetime.start.p0(i64 8, ptr %5) #9
  %22 = load ptr, ptr %2, align 8
  %23 = getelementptr inbounds nuw %struct.FunctionCallInfoBaseData, ptr %22, i32 0, i32 6
  %24 = getelementptr inbounds [0 x %struct.NullableDatum], ptr %23, i64 0, i64 2
  %25 = getelementptr inbounds nuw %struct.NullableDatum, ptr %24, i32 0, i32 0
  %26 = load i64, ptr %25, align 8
  %27 = call ptr @DatumGetPointer(i64 noundef %26)
  %28 = call ptr @pg_detoast_datum_packed(ptr noundef %27)
  store ptr %28, ptr %5, align 8
  call void @llvm.lifetime.start.p0(i64 4, ptr %6) #9
  call void @llvm.lifetime.start.p0(i64 8, ptr %7) #9
  call void @llvm.lifetime.start.p0(i64 4, ptr %8) #9
  %29 = load ptr, ptr %4, align 8
  %30 = call i32 @convert_schema_name(ptr noundef %29)
  store i32 %30, ptr %6, align 4
  %31 = load ptr, ptr %5, align 8
  %32 = call i64 @convert_schema_priv_string(ptr noundef %31)
  store i64 %32, ptr %7, align 8
  %33 = load i32, ptr %6, align 4
  %34 = load i32, ptr %3, align 4
  %35 = load i64, ptr %7, align 8
  %36 = call i32 @object_aclcheck(i32 noundef 2615, i32 noundef %33, i32 noundef %34, i64 noundef %35)
  store i32 %36, ptr %8, align 4
  %37 = load i32, ptr %8, align 4
  %38 = icmp eq i32 %37, 0
  %39 = call i64 @BoolGetDatum(i1 noundef zeroext %38)
  call void @llvm.lifetime.end.p0(i64 4, ptr %8) #9
  call void @llvm.lifetime.end.p0(i64 8, ptr %7) #9
  call void @llvm.lifetime.end.p0(i64 4, ptr %6) #9
  call void @llvm.lifetime.end.p0(i64 8, ptr %5) #9
  call void @llvm.lifetime.end.p0(i64 8, ptr %4) #9
  call void @llvm.lifetime.end.p0(i64 4, ptr %3) #9
  ret i64 %39
}